target datalayout = "e-m:e-p270:32:32-p271:32:32-p272:64:64-i64:64-i128:128-f80:128-n8:16:32:64-S128"
target triple = "x86_64-pc-linux-gnu"

%struct._lv_tabview_t = type { %struct._lv_obj_t, i32, i32 }
%struct._lv_obj_t = type { ptr, ptr, ptr, ptr, ptr, %struct.lv_area_t, i32, i16, i16 }
%struct.lv_area_t = type { i32, i32, i32, i32 }

; Function Attrs: nounwind uwtable
define internal void @lv_tabview_constructor(ptr noundef %0, ptr noundef %1) #0 {
  %3 = alloca ptr, align 8
  %4 = alloca ptr, align 8
  %5 = alloca ptr, align 8
  %6 = alloca ptr, align 8
  store ptr %0, ptr %3, align 8, !tbaa !3
  store ptr %1, ptr %4, align 8, !tbaa !3
  call void @llvm.lifetime.start.p0(i64 8, ptr %5) #4
  %7 = load ptr, ptr %4, align 8, !tbaa !3
  store ptr %7, ptr %5, align 8, !tbaa !3
  %8 = load ptr, ptr %5, align 8, !tbaa !3
  %9 = getelementptr inbounds nuw %struct._lv_tabview_t, ptr %8, i32 0, i32 2
  store i32 0, ptr %9, align 4, !tbaa !7
  %10 = load ptr, ptr %4, align 8, !tbaa !3
  call void @lv_obj_set_size(ptr noundef %10, i32 noundef 536871012, i32 noundef 536871012)
  call void @llvm.lifetime.start.p0(i64 8, ptr %6) #4
  %11 = load ptr, ptr %4, align 8, !tbaa !3
  %12 = call ptr @lv_obj_create(ptr noundef %11)
  %13 = load ptr, ptr %4, align 8, !tbaa !3
  %14 = call ptr @lv_obj_create(ptr noundef %13)
  store ptr %14, ptr %6, align 8, !tbaa !3
  %15 = load ptr, ptr %6, align 8, !tbaa !3
  call void @lv_obj_set_flex_flow(ptr noundef %15, i32 noundef 0)
  %16 = load ptr, ptr %6, align 8, !tbaa !3
  %17 = call ptr @lv_obj_add_event_cb(ptr noundef %16, ptr noundef @cont_scroll_end_event_cb, i32 noundef 0, ptr noundef null)
  %18 = load ptr, ptr %6, align 8, !tbaa !3
  call void @lv_obj_set_scrollbar_mode(ptr noundef %18, i32 noundef 0)
  %19 = load ptr, ptr %4, align 8, !tbaa !3
  call void @lv_tabview_set_tab_bar_position(ptr noundef %19, i32 noundef 4)
  %20 = load ptr, ptr %6, align 8, !tbaa !3
  call void @lv_obj_add_flag(ptr noundef %20, i32 noundef 128)
  %21 = load ptr, ptr %6, align 8, !tbaa !3
  call void @lv_obj_remove_flag(ptr noundef %21, i32 noundef 1024)
  call void @llvm.lifetime.end.p0(i64 8, ptr %6) #4
  call void @llvm.lifetime.end.p0(i64 8, ptr %5) #4
  ret void
}