; Function Attrs: nounwind uwtable
define internal void @lv_tabview_constructor(ptr nocapture readnone %0, ptr noundef %1) #0 {
  %3 = getelementptr inbounds nuw i8, ptr %1, i64 68
  store i32 0, ptr %3, align 4, !tbaa !3
  tail call void @lv_obj_set_size(ptr noundef %1, i32 noundef 536871012, i32 noundef 536871012) #5
  %4 = tail call ptr @lv_obj_create(ptr noundef %1) #5
  %5 = tail call ptr @lv_obj_create(ptr noundef %1) #5
  tail call void @lv_obj_set_flex_flow(ptr noundef %5, i32 noundef 0) #5
  %6 = tail call ptr @lv_obj_add_event_cb(ptr noundef %5, ptr noundef nonnull @cont_scroll_end_event_cb, i32 noundef 0, ptr noundef null) #5
  tail call void @lv_obj_set_scrollbar_mode(ptr noundef %5, i32 noundef 0) #5
  tail call void @lv_tabview_set_tab_bar_position(ptr noundef %1, i32 noundef 4)
  tail call void @lv_obj_add_flag(ptr noundef %5, i32 noundef 128) #5
  tail call void @lv_obj_remove_flag(ptr noundef %5, i32 noundef 1024) #5
  ret void
}